; Function Attrs: mustprogress uwtable
define void @_ZN6google8protobuf7strings20GrowingArrayByteSink11ShrinkToFitEv(ptr nocapture noundef nonnull align 8 dereferenceable(32) %0) local_unnamed_addr #3 align 2 {
  %2 = getelementptr inbounds i8, ptr %0, i64 8
  %3 = load i64, ptr %2, align 8
  %4 = icmp ugt i64 %3, 256
  br i1 %4, label %5, label %19

5:                                                ; preds = %1
  %6 = getelementptr inbounds i8, ptr %0, i64 24
  %7 = load i64, ptr %6, align 8
  %8 = mul i64 %3, 3
  %9 = lshr i64 %8, 2
  %10 = icmp ult i64 %7, %9
  br i1 %10, label %11, label %19

11:                                               ; preds = %5
  %12 = tail call noalias noundef nonnull ptr @_Znam(i64 noundef %7) #18
  %13 = getelementptr inbounds i8, ptr %0, i64 16
  %14 = load ptr, ptr %13, align 8
  tail call void @llvm.memcpy.p0.p0.i64(ptr nonnull align 1 %12, ptr align 1 %14, i64 %7, i1 false)
  %15 = icmp eq ptr %14, null
  br i1 %15, label %17, label %16

16:                                               ; preds = %11
  tail call void @_ZdaPv(ptr noundef nonnull %14) #19
  %.pre = load i64, ptr %6, align 8
  br label %17

17:                                               ; preds = %16, %11
  %18 = phi i64 [ %.pre, %16 ], [ %7, %11 ]
  store ptr %12, ptr %13, align 8
  store i64 %18, ptr %2, align 8
  br label %19

19:                                               ; preds = %17, %5, %1
  ret void
}